target datalayout = "e-m:e-p270:32:32-p271:32:32-p272:64:64-i64:64-i128:128-f80:128-n8:16:32:64-S128"
target triple = "x86_64-unknown-linux-gnu"

; Function Attrs: mustprogress uwtable
define dso_local void @_ZN23btDiscreteDynamicsWorld9serializeEP12btSerializer(ptr noundef nonnull align 8 dereferenceable(508) %this, ptr noundef %serializer) unnamed_addr #2 align 2 {
entry:
  %this.addr = alloca ptr, align 8
  %serializer.addr = alloca ptr, align 8
  store ptr %this, ptr %this.addr, align 8
  store ptr %serializer, ptr %serializer.addr, align 8
  %this1 = load ptr, ptr %this.addr, align 8
  %0 = load ptr, ptr %serializer.addr, align 8
  %vtable = load ptr, ptr %0, align 8
  %vfn = getelementptr inbounds ptr, ptr %vtable, i64 8
  %1 = load ptr, ptr %vfn, align 8
  call void %1(ptr noundef nonnull align 8 dereferenceable(8) %0)
  %2 = load ptr, ptr %serializer.addr, align 8
  call void @_ZN23btDiscreteDynamicsWorld26serializeDynamicsWorldInfoEP12btSerializer(ptr noundef nonnull align 8 dereferenceable(508) %this1, ptr noundef %2)
  %3 = load ptr, ptr %serializer.addr, align 8
  call void @_ZN16btCollisionWorld25serializeCollisionObjectsEP12btSerializer(ptr noundef nonnull align 8 dereferenceable(121) %this1, ptr noundef %3)
  %4 = load ptr, ptr %serializer.addr, align 8
  call void @_ZN23btDiscreteDynamicsWorld20serializeRigidBodiesEP12btSerializer(ptr noundef nonnull align 8 dereferenceable(508) %this1, ptr noundef %4)
  %5 = load ptr, ptr %serializer.addr, align 8
  call void @_ZN16btCollisionWorld25serializeContactManifoldsEP12btSerializer(ptr noundef nonnull align 8 dereferenceable(121) %this1, ptr noundef %5)
  %6 = load ptr, ptr %serializer.addr, align 8
  %vtable2 = load ptr, ptr %6, align 8
  %vfn3 = getelementptr inbounds ptr, ptr %vtable2, i64 9
  %7 = load ptr, ptr %vfn3, align 8
  call void %7(ptr noundef nonnull align 8 dereferenceable(8) %6)
  ret void
}